target datalayout = "e-m:e-p270:32:32-p271:32:32-p272:64:64-i64:64-i128:128-f80:128-n8:16:32:64-S128"
target triple = "x86_64-unknown-linux-gnu"

%"class.icu_75::UObject" = type { ptr }
%"class.icu_75::UnicodeString" = type { %"class.icu_75::Replaceable", %"union.icu_75::UnicodeString::StackBufferOrFields" }
%"class.icu_75::Replaceable" = type { %"class.icu_75::UObject" }
%"union.icu_75::UnicodeString::StackBufferOrFields" = type { %struct.anon.0, [32 x i8] }
%struct.anon.0 = type { i16, i32, i32, ptr }
%"class.icu_75::Formattable" = type { %"class.icu_75::UObject", %union.anon, ptr, ptr, i32, %"class.icu_75::UnicodeString" }
%union.anon = type { %struct.anon.1 }
%struct.anon.1 = type { ptr, i32 }

; Function Attrs: mustprogress uwtable
define noundef nonnull align 8 dereferenceable(64) ptr @_ZNK6icu_7512PluralFormat6formatEdRNS_13UnicodeStringERNS_13FieldPositionER10UErrorCode(ptr noundef nonnull align 8 dereferenceable(712) %this, double noundef %number, ptr noundef nonnull align 8 dereferenceable(64) %appendTo, ptr noundef nonnull align 8 dereferenceable(20) %pos, ptr noundef nonnull align 4 dereferenceable(4) %status) #1 align 2 personality ptr @__gxx_personality_v0 {
entry:
  %this.addr = alloca ptr, align 8
  %number.addr = alloca double, align 8
  %appendTo.addr = alloca ptr, align 8
  %pos.addr = alloca ptr, align 8
  %status.addr = alloca ptr, align 8
  %ref.tmp = alloca %"class.icu_75::Formattable", align 8
  %exn.slot = alloca ptr, align 8
  %ehselector.slot = alloca i32, align 4
  store ptr %this, ptr %this.addr, align 8
  store double %number, ptr %number.addr, align 8
  store ptr %appendTo, ptr %appendTo.addr, align 8
  store ptr %pos, ptr %pos.addr, align 8
  store ptr %status, ptr %status.addr, align 8
  %this1 = load ptr, ptr %this.addr, align 8
  %0 = load double, ptr %number.addr, align 8
  call void @_ZN6icu_7511FormattableC1Ed(ptr noundef nonnull align 8 dereferenceable(112) %ref.tmp, double noundef %0)
  %1 = load double, ptr %number.addr, align 8
  %2 = load ptr, ptr %appendTo.addr, align 8
  %3 = load ptr, ptr %pos.addr, align 8
  %4 = load ptr, ptr %status.addr, align 8
  %call = invoke noundef nonnull align 8 dereferenceable(64) ptr @_ZNK6icu_7512PluralFormat6formatERKNS_11FormattableEdRNS_13UnicodeStringERNS_13FieldPositionER10UErrorCode(ptr noundef nonnull align 8 dereferenceable(712) %this1, ptr noundef nonnull align 8 dereferenceable(112) %ref.tmp, double noundef %1, ptr noundef nonnull align 8 dereferenceable(64) %2, ptr noundef nonnull align 8 dereferenceable(20) %3, ptr noundef nonnull align 4 dereferenceable(4) %4)
          to label %invoke.cont unwind label %lpad

invoke.cont:                                      ; preds = %entry
  call void @_ZN6icu_7511FormattableD1Ev(ptr noundef nonnull align 8 dereferenceable(112) %ref.tmp) #10
  ret ptr %call

lpad:                                             ; preds = %entry
  %5 = landingpad { ptr, i32 }
          cleanup
  %6 = extractvalue { ptr, i32 } %5, 0
  store ptr %6, ptr %exn.slot, align 8
  %7 = extractvalue { ptr, i32 } %5, 1
  store i32 %7, ptr %ehselector.slot, align 4
  call void @_ZN6icu_7511FormattableD1Ev(ptr noundef nonnull align 8 dereferenceable(112) %ref.tmp) #10
  br label %eh.resume

eh.resume:                                        ; preds = %lpad
  %exn = load ptr, ptr %exn.slot, align 8
  %sel = load i32, ptr %ehselector.slot, align 4
  %lpad.val = insertvalue { ptr, i32 } poison, ptr %exn, 0
  %lpad.val2 = insertvalue { ptr, i32 } %lpad.val, i32 %sel, 1
  resume { ptr, i32 } %lpad.val2
}